target datalayout = "e-m:e-p270:32:32-p271:32:32-p272:64:64-i64:64-i128:128-f80:128-n8:16:32:64-S128"
target triple = "x86_64-unknown-linux-gnu"

; Function Attrs: mustprogress uwtable
define internal noundef i32 @_ZL22charsetMatchComparatorPKvS0_S0_(ptr noundef %0, ptr noundef %left, ptr noundef %right) #0 {
entry:
  %.addr = alloca ptr, align 8
  %left.addr = alloca ptr, align 8
  %right.addr = alloca ptr, align 8
  %csm_l = alloca ptr, align 8
  %csm_r = alloca ptr, align 8
  store ptr %0, ptr %.addr, align 8
  store ptr %left, ptr %left.addr, align 8
  store ptr %right, ptr %right.addr, align 8
  %1 = load ptr, ptr %left.addr, align 8
  store ptr %1, ptr %csm_l, align 8
  %2 = load ptr, ptr %right.addr, align 8
  store ptr %2, ptr %csm_r, align 8
  %3 = load ptr, ptr %csm_r, align 8
  %4 = load ptr, ptr %3, align 8
  %call = call noundef i32 @_ZNK6icu_7512CharsetMatch13getConfidenceEv(ptr noundef nonnull align 8 dereferenceable(32) %4)
  %5 = load ptr, ptr %csm_l, align 8
  %6 = load ptr, ptr %5, align 8
  %call1 = call noundef i32 @_ZNK6icu_7512CharsetMatch13getConfidenceEv(ptr noundef nonnull align 8 dereferenceable(32) %6)
  %sub = sub nsw i32 %call, %call1
  ret i32 %sub
}