; Function Attrs: mustprogress uwtable
define internal noundef i32 @_ZL22charsetMatchComparatorPKvS0_S0_(ptr nocapture readnone %0, ptr nocapture noundef readonly %left, ptr nocapture noundef readonly %right) #0 {
entry:
  %1 = load ptr, ptr %right, align 8
  %call = tail call noundef i32 @_ZNK6icu_7512CharsetMatch13getConfidenceEv(ptr noundef nonnull align 8 dereferenceable(32) %1)
  %2 = load ptr, ptr %left, align 8
  %call1 = tail call noundef i32 @_ZNK6icu_7512CharsetMatch13getConfidenceEv(ptr noundef nonnull align 8 dereferenceable(32) %2)
  %sub = sub nsw i32 %call, %call1
  ret i32 %sub
}